; Function Attrs: mustprogress uwtable
define void @_Z37alts_record_protocol_crypter_destructP12alts_crypter(ptr noundef readonly %0) local_unnamed_addr #0 {
  %.not = icmp eq ptr %0, null
  br i1 %.not, label %7, label %2

2:                                                ; preds = %1
  %3 = getelementptr inbounds nuw i8, ptr %0, i64 16
  %4 = load ptr, ptr %3, align 8, !tbaa !10
  tail call void @_Z20alts_counter_destroyP12alts_counter(ptr noundef %4)
  %5 = getelementptr inbounds nuw i8, ptr %0, i64 8
  %6 = load ptr, ptr %5, align 8, !tbaa !20
  tail call void @_Z25gsec_aead_crypter_destroyP17gsec_aead_crypter(ptr noundef %6)
  br label %7

7:                                                ; preds = %2, %1
  ret void
}